; Function Attrs: mustprogress nofree norecurse nosync nounwind willreturn memory(read, inaccessiblemem: none) uwtable
define <2 x float> @_ZNK9MeshGraph15DistortionRangeEv(ptr nocapture noundef nonnull readonly align 8 dereferenceable(80) %0) local_unnamed_addr #19 align 2 {
  %2 = getelementptr inbounds i8, ptr %0, i64 24
  %.sroa.06.018 = load ptr, ptr %2, align 8
  %.not19 = icmp eq ptr %.sroa.06.018, null
  br i1 %.not19, label %14, label %.lr.ph

.lr.ph:                                           ; preds = %1, %.lr.ph
  %3 = phi float [ %13, %.lr.ph ], [ 0xC7EFFFFFE0000000, %1 ]
  %.sroa.06.021 = phi ptr [ %.sroa.06.0, %.lr.ph ], [ %.sroa.06.018, %1 ]
  %.sroa.010.0..sroa.010.0.111720 = phi float [ %9, %.lr.ph ], [ 0x47EFFFFFE0000000, %1 ]
  %4 = getelementptr inbounds i8, ptr %.sroa.06.021, i64 16
  %5 = load ptr, ptr %4, align 8
  %6 = getelementptr inbounds i8, ptr %5, i64 100
  %7 = load float, ptr %6, align 4
  %8 = fcmp olt float %.sroa.010.0..sroa.010.0.111720, %7
  %9 = select i1 %8, float %.sroa.010.0..sroa.010.0.111720, float %7
  %10 = getelementptr inbounds i8, ptr %5, i64 104
  %11 = load float, ptr %10, align 4
  %12 = fcmp olt float %11, %3
  %13 = select i1 %12, float %3, float %11
  %.sroa.06.0 = load ptr, ptr %.sroa.06.021, align 8
  %.not = icmp eq ptr %.sroa.06.0, null
  br i1 %.not, label %._crit_edge, label %.lr.ph

._crit_edge:                                      ; preds = %.lr.ph
  %.sroa.010.4.vec.insert = insertelement <2 x float> <float 0x47EFFFFFE0000000, float poison>, float %13, i64 1
  br label %14

14:                                               ; preds = %._crit_edge, %1
  %.sroa.010.0 = phi <2 x float> [ <float 0x47EFFFFFE0000000, float 0xC7EFFFFFE0000000>, %1 ], [ %.sroa.010.4.vec.insert, %._crit_edge ]
  %.sroa.010.0..sroa.010.0.1117.lcssa = phi float [ 0x47EFFFFFE0000000, %1 ], [ %9, %._crit_edge ]
  %.sroa.010.0.vec.insert = insertelement <2 x float> %.sroa.010.0, float %.sroa.010.0..sroa.010.0.1117.lcssa, i64 0
  ret <2 x float> %.sroa.010.0.vec.insert
}